target datalayout = "e-m:e-p270:32:32-p271:32:32-p272:64:64-i64:64-i128:128-f80:128-n8:16:32:64-S128"
target triple = "x86_64-pc-linux-gnu"

%"class.std::shared_ptr" = type { %"class.std::__shared_ptr" }
%"class.std::__shared_ptr" = type { ptr, %"class.std::__shared_count" }
%"class.std::__shared_count" = type { ptr }
%"class.std::__cxx11::basic_string" = type { %"struct.std::__cxx11::basic_string<char>::_Alloc_hider", i64, %union.anon }
%"struct.std::__cxx11::basic_string<char>::_Alloc_hider" = type { ptr }
%union.anon = type { i64, [8 x i8] }
%"class.arrow::Field" = type { %"class.arrow::detail::Fingerprintable", %"class.std::__cxx11::basic_string", %"class.std::shared_ptr", i8, %"class.std::shared_ptr.19" }
%"class.arrow::detail::Fingerprintable" = type { ptr, %"struct.std::atomic", %"struct.std::atomic" }
%"struct.std::atomic" = type { %"struct.std::__atomic_base" }
%"struct.std::__atomic_base" = type { ptr }
%"class.std::shared_ptr.19" = type { %"class.std::__shared_ptr.20" }
%"class.std::__shared_ptr.20" = type { ptr, %"class.std::__shared_count" }

; Function Attrs: mustprogress nounwind uwtable
define linkonce_odr noundef ptr @_ZNKSt12__shared_ptrIKN5arrow16KeyValueMetadataELN9__gnu_cxx12_Lock_policyE2EE3getEv(ptr noundef nonnull align 8 dereferenceable(16) %0) #0 comdat align 2 {
  %2 = alloca ptr, align 8
  store ptr %0, ptr %2, align 8, !tbaa !217
  %3 = load ptr, ptr %2, align 8
  %4 = getelementptr inbounds nuw %"class.std::__shared_ptr.20", ptr %3, i32 0, i32 0
  %5 = load ptr, ptr %4, align 8, !tbaa !219
  ret ptr %5
}

; Function Attrs: mustprogress nounwind uwtable
define linkonce_odr noundef zeroext i1 @_ZNKSt12__shared_ptrIKN5arrow16KeyValueMetadataELN9__gnu_cxx12_Lock_policyE2EEcvbEv(ptr noundef nonnull align 8 dereferenceable(16) %0) #0 comdat align 2 {
  %2 = alloca ptr, align 8
  store ptr %0, ptr %2, align 8, !tbaa !217
  %3 = load ptr, ptr %2, align 8
  %4 = getelementptr inbounds nuw %"class.std::__shared_ptr.20", ptr %3, i32 0, i32 0
  %5 = load ptr, ptr %4, align 8, !tbaa !219
  %6 = icmp ne ptr %5, null
  ret i1 %6
}

; Function Attrs: mustprogress nounwind uwtable
define available_externally noundef ptr @_ZNKSt7__cxx1112basic_stringIcSt11char_traitsIcESaIcEE7_M_dataEv(ptr noundef nonnull align 8 dereferenceable(32) %0) #0 align 2 {
  %2 = alloca ptr, align 8
  store ptr %0, ptr %2, align 8, !tbaa !168
  %3 = load ptr, ptr %2, align 8
  %4 = getelementptr inbounds nuw %"class.std::__cxx11::basic_string", ptr %3, i32 0, i32 0
  %5 = getelementptr inbounds nuw %"struct.std::__cxx11::basic_string<char>::_Alloc_hider", ptr %4, i32 0, i32 0
  %6 = load ptr, ptr %5, align 8, !tbaa !1077
  ret ptr %6
}

; Function Attrs: mustprogress nounwind uwtable
define linkonce_odr noundef ptr @_ZNKSt19__shared_ptr_accessIKN5arrow16KeyValueMetadataELN9__gnu_cxx12_Lock_policyE2ELb0ELb0EE6_M_getEv(ptr noundef nonnull align 1 dereferenceable(1) %0) #0 comdat align 2 {
  %2 = alloca ptr, align 8
  store ptr %0, ptr %2, align 8, !tbaa !211
  %3 = load ptr, ptr %2, align 8
  %4 = call noundef ptr @_ZNKSt12__shared_ptrIKN5arrow16KeyValueMetadataELN9__gnu_cxx12_Lock_policyE2EE3getEv(ptr noundef nonnull align 8 dereferenceable(16) %3) #15
  ret ptr %4
}

; Function Attrs: inlinehint mustprogress nounwind uwtable
define linkonce_odr noundef zeroext i1 @_ZStneIKN5arrow16KeyValueMetadataEEbRKSt10shared_ptrIT_EDn(ptr noundef nonnull align 8 dereferenceable(16) %0, ptr %1) #4 comdat {
  %3 = alloca ptr, align 8
  %4 = alloca ptr, align 8
  store ptr %0, ptr %3, align 8, !tbaa !207
  store ptr %1, ptr %4, align 8, !tbaa !209
  %5 = load ptr, ptr %3, align 8, !tbaa !207
  %6 = call noundef zeroext i1 @_ZNKSt12__shared_ptrIKN5arrow16KeyValueMetadataELN9__gnu_cxx12_Lock_policyE2EEcvbEv(ptr noundef nonnull align 8 dereferenceable(16) %5) #15
  ret i1 %6
}

; Function Attrs: mustprogress nounwind uwtable
define linkonce_odr noundef ptr @_ZNKSt19__shared_ptr_accessIN5arrow8DataTypeELN9__gnu_cxx12_Lock_policyE2ELb0ELb0EE6_M_getEv(ptr noundef nonnull align 1 dereferenceable(1) %0) #0 comdat align 2 {
  %2 = alloca ptr, align 8
  store ptr %0, ptr %2, align 8, !tbaa !199
  %3 = load ptr, ptr %2, align 8
  %4 = call noundef ptr @_ZNKSt12__shared_ptrIN5arrow8DataTypeELN9__gnu_cxx12_Lock_policyE2EE3getEv(ptr noundef nonnull align 8 dereferenceable(16) %3) #15
  ret ptr %4
}

; Function Attrs: noinline noreturn nounwind uwtable
define linkonce_odr hidden void @__clang_call_terminate(ptr noundef %0) #18 comdat {
  %2 = call ptr @__cxa_begin_catch(ptr %0) #15
  call void @_ZSt9terminatev() #30
  unreachable
}

; Function Attrs: mustprogress nounwind uwtable
define linkonce_odr noundef i32 @_ZNSt11char_traitsIcE7compareEPKcS2_m(ptr noundef %0, ptr noundef %1, i64 noundef %2) #0 comdat align 2 {
  %4 = alloca i32, align 4
  %5 = alloca ptr, align 8
  %6 = alloca ptr, align 8
  %7 = alloca i64, align 8
  store ptr %0, ptr %5, align 8, !tbaa !164
  store ptr %1, ptr %6, align 8, !tbaa !164
  store i64 %2, ptr %7, align 8, !tbaa !43
  %8 = load i64, ptr %7, align 8, !tbaa !43
  %9 = icmp eq i64 %8, 0
  br i1 %9, label %10, label %11

10:                                               ; preds = %3
  store i32 0, ptr %4, align 4
  br label %16

11:                                               ; preds = %3
  %12 = load ptr, ptr %5, align 8, !tbaa !164
  %13 = load ptr, ptr %6, align 8, !tbaa !164
  %14 = load i64, ptr %7, align 8, !tbaa !43
  %15 = call i32 @memcmp(ptr noundef %12, ptr noundef %13, i64 noundef %14) #15
  store i32 %15, ptr %4, align 4
  br label %16

16:                                               ; preds = %11, %10
  %17 = load i32, ptr %4, align 4
  ret i32 %17
}

; Function Attrs: mustprogress nounwind uwtable
define available_externally noundef ptr @_ZNKSt7__cxx1112basic_stringIcSt11char_traitsIcESaIcEE4dataEv(ptr noundef nonnull align 8 dereferenceable(32) %0) #0 align 2 {
  %2 = alloca ptr, align 8
  store ptr %0, ptr %2, align 8, !tbaa !168
  %3 = load ptr, ptr %2, align 8
  %4 = call noundef ptr @_ZNKSt7__cxx1112basic_stringIcSt11char_traitsIcESaIcEE7_M_dataEv(ptr noundef nonnull align 8 dereferenceable(32) %3)
  ret ptr %4
}

; Function Attrs: mustprogress nounwind uwtable
define available_externally noundef i64 @_ZNKSt7__cxx1112basic_stringIcSt11char_traitsIcESaIcEE4sizeEv(ptr noundef nonnull align 8 dereferenceable(32) %0) #0 align 2 {
  %2 = alloca ptr, align 8
  store ptr %0, ptr %2, align 8, !tbaa !168
  %3 = load ptr, ptr %2, align 8
  %4 = getelementptr inbounds nuw %"class.std::__cxx11::basic_string", ptr %3, i32 0, i32 1
  %5 = load i64, ptr %4, align 8, !tbaa !384
  ret i64 %5
}

; Function Attrs: mustprogress nounwind uwtable
define linkonce_odr noundef nonnull align 8 dereferenceable(48) ptr @_ZNKSt19__shared_ptr_accessIKN5arrow16KeyValueMetadataELN9__gnu_cxx12_Lock_policyE2ELb0ELb0EEdeEv(ptr noundef nonnull align 1 dereferenceable(1) %0) #0 comdat align 2 {
  %2 = alloca ptr, align 8
  store ptr %0, ptr %2, align 8, !tbaa !211
  %3 = load ptr, ptr %2, align 8
  br label %4

4:                                                ; preds = %1
  br label %5

5:                                                ; preds = %4
  br label %6

6:                                                ; preds = %5
  %7 = call noundef ptr @_ZNKSt19__shared_ptr_accessIKN5arrow16KeyValueMetadataELN9__gnu_cxx12_Lock_policyE2ELb0ELb0EE6_M_getEv(ptr noundef nonnull align 1 dereferenceable(1) %3) #15
  ret ptr %7
}

; Function Attrs: mustprogress nounwind uwtable
define linkonce_odr noundef ptr @_ZNKSt19__shared_ptr_accessIKN5arrow16KeyValueMetadataELN9__gnu_cxx12_Lock_policyE2ELb0ELb0EEptEv(ptr noundef nonnull align 1 dereferenceable(1) %0) #0 comdat align 2 {
  %2 = alloca ptr, align 8
  store ptr %0, ptr %2, align 8, !tbaa !211
  %3 = load ptr, ptr %2, align 8
  %4 = call noundef ptr @_ZNKSt19__shared_ptr_accessIKN5arrow16KeyValueMetadataELN9__gnu_cxx12_Lock_policyE2ELb0ELb0EE6_M_getEv(ptr noundef nonnull align 1 dereferenceable(1) %3) #15
  ret ptr %4
}

; Function Attrs: mustprogress uwtable
define noundef zeroext i1 @_ZNK5arrow5Field11HasMetadataEv(ptr noundef nonnull align 8 dereferenceable(96) %0) #1 align 2 {
  %2 = alloca ptr, align 8
  store ptr %0, ptr %2, align 8, !tbaa !201
  %3 = load ptr, ptr %2, align 8
  %4 = getelementptr inbounds nuw %"class.arrow::Field", ptr %3, i32 0, i32 4
  %5 = call noundef zeroext i1 @_ZStneIKN5arrow16KeyValueMetadataEEbRKSt10shared_ptrIT_EDn(ptr noundef nonnull align 8 dereferenceable(16) %4, ptr null) #15
  br i1 %5, label %6, label %11

6:                                                ; preds = %1
  %7 = getelementptr inbounds nuw %"class.arrow::Field", ptr %3, i32 0, i32 4
  %8 = call noundef ptr @_ZNKSt19__shared_ptr_accessIKN5arrow16KeyValueMetadataELN9__gnu_cxx12_Lock_policyE2ELb0ELb0EEptEv(ptr noundef nonnull align 1 dereferenceable(1) %7) #15
  %9 = call noundef i64 @_ZNK5arrow16KeyValueMetadata4sizeEv(ptr noundef nonnull align 8 dereferenceable(48) %8)
  %10 = icmp sgt i64 %9, 0
  br label %11

11:                                               ; preds = %6, %1
  %12 = phi i1 [ false, %1 ], [ %10, %6 ]
  ret i1 %12
}

; Function Attrs: mustprogress uwtable
define noundef zeroext i1 @_ZNK5arrow8DataType6EqualsERKS0_b(ptr noundef nonnull align 8 dereferenceable(72) %0, ptr noundef nonnull align 8 dereferenceable(72) %1, i1 noundef zeroext %2) #1 align 2 {
  %4 = alloca ptr, align 8
  %5 = alloca ptr, align 8
  %6 = alloca i8, align 1
  store ptr %0, ptr %4, align 8, !tbaa !195
  store ptr %1, ptr %5, align 8, !tbaa !195
  %7 = zext i1 %2 to i8
  store i8 %7, ptr %6, align 1, !tbaa !226
  %8 = load ptr, ptr %4, align 8
  %9 = load ptr, ptr %5, align 8, !tbaa !195
  %10 = load i8, ptr %6, align 1, !tbaa !226, !range !181, !noundef !182
  %11 = trunc i8 %10 to i1
  %12 = call noundef zeroext i1 @_ZN5arrow10TypeEqualsERKNS_8DataTypeES2_b(ptr noundef nonnull align 8 dereferenceable(72) %8, ptr noundef nonnull align 8 dereferenceable(72) %9, i1 noundef zeroext %11)
  ret i1 %12
}

; Function Attrs: mustprogress nounwind uwtable
define linkonce_odr noundef ptr @_ZNKSt12__shared_ptrIN5arrow8DataTypeELN9__gnu_cxx12_Lock_policyE2EE3getEv(ptr noundef nonnull align 8 dereferenceable(16) %0) #0 comdat align 2 {
  %2 = alloca ptr, align 8
  store ptr %0, ptr %2, align 8, !tbaa !262
  %3 = load ptr, ptr %2, align 8
  %4 = getelementptr inbounds nuw %"class.std::__shared_ptr", ptr %3, i32 0, i32 0
  %5 = load ptr, ptr %4, align 8, !tbaa !264
  ret ptr %5
}

; Function Attrs: mustprogress nounwind uwtable
define linkonce_odr noundef ptr @_ZNKSt19__shared_ptr_accessIN5arrow8DataTypeELN9__gnu_cxx12_Lock_policyE2ELb0ELb0EEptEv(ptr noundef nonnull align 1 dereferenceable(1) %0) #0 comdat align 2 {
  %2 = alloca ptr, align 8
  store ptr %0, ptr %2, align 8, !tbaa !199
  %3 = load ptr, ptr %2, align 8
  %4 = call noundef ptr @_ZNKSt19__shared_ptr_accessIN5arrow8DataTypeELN9__gnu_cxx12_Lock_policyE2ELb0ELb0EE6_M_getEv(ptr noundef nonnull align 1 dereferenceable(1) %3) #15
  ret ptr %4
}

; Function Attrs: inlinehint mustprogress nounwind uwtable
define linkonce_odr noundef zeroext i1 @_ZSteqIcEN9__gnu_cxx11__enable_ifIXsr9__is_charIT_EE7__valueEbE6__typeERKNSt7__cxx1112basic_stringIS2_St11char_traitsIS2_ESaIS2_EEESC_(ptr noundef nonnull align 8 dereferenceable(32) %0, ptr noundef nonnull align 8 dereferenceable(32) %1) #4 comdat personality ptr @__gxx_personality_v0 {
  %3 = alloca ptr, align 8
  %4 = alloca ptr, align 8
  store ptr %0, ptr %3, align 8, !tbaa !168
  store ptr %1, ptr %4, align 8, !tbaa !168
  %5 = load ptr, ptr %3, align 8, !tbaa !168
  %6 = call noundef i64 @_ZNKSt7__cxx1112basic_stringIcSt11char_traitsIcESaIcEE4sizeEv(ptr noundef nonnull align 8 dereferenceable(32) %5) #15
  %7 = load ptr, ptr %4, align 8, !tbaa !168
  %8 = call noundef i64 @_ZNKSt7__cxx1112basic_stringIcSt11char_traitsIcESaIcEE4sizeEv(ptr noundef nonnull align 8 dereferenceable(32) %7) #15
  %9 = icmp eq i64 %6, %8
  br i1 %9, label %10, label %21

10:                                               ; preds = %2
  %11 = load ptr, ptr %3, align 8, !tbaa !168
  %12 = call noundef ptr @_ZNKSt7__cxx1112basic_stringIcSt11char_traitsIcESaIcEE4dataEv(ptr noundef nonnull align 8 dereferenceable(32) %11) #15
  %13 = load ptr, ptr %4, align 8, !tbaa !168
  %14 = call noundef ptr @_ZNKSt7__cxx1112basic_stringIcSt11char_traitsIcESaIcEE4dataEv(ptr noundef nonnull align 8 dereferenceable(32) %13) #15
  %15 = load ptr, ptr %3, align 8, !tbaa !168
  %16 = call noundef i64 @_ZNKSt7__cxx1112basic_stringIcSt11char_traitsIcESaIcEE4sizeEv(ptr noundef nonnull align 8 dereferenceable(32) %15) #15
  %17 = invoke noundef i32 @_ZNSt11char_traitsIcE7compareEPKcS2_m(ptr noundef %12, ptr noundef %14, i64 noundef %16)
          to label %18 unwind label %23

18:                                               ; preds = %10
  %19 = icmp ne i32 %17, 0
  %20 = xor i1 %19, true
  br label %21

21:                                               ; preds = %18, %2
  %22 = phi i1 [ false, %2 ], [ %20, %18 ]
  ret i1 %22

23:                                               ; preds = %10
  %24 = landingpad { ptr, i32 }
          catch ptr null
  %25 = extractvalue { ptr, i32 } %24, 0
  call void @__clang_call_terminate(ptr %25) #30
  unreachable
}

; Function Attrs: mustprogress uwtable
define noundef zeroext i1 @_ZNK5arrow5Field6EqualsERKS0_b(ptr noundef nonnull align 8 dereferenceable(96) %0, ptr noundef nonnull align 8 dereferenceable(96) %1, i1 noundef zeroext %2) #1 align 2 {
  %4 = alloca i1, align 1
  %5 = alloca ptr, align 8
  %6 = alloca ptr, align 8
  %7 = alloca i8, align 1
  store ptr %0, ptr %5, align 8, !tbaa !201
  store ptr %1, ptr %6, align 8, !tbaa !201
  %8 = zext i1 %2 to i8
  store i8 %8, ptr %7, align 1, !tbaa !226
  %9 = load ptr, ptr %5, align 8
  %10 = load ptr, ptr %6, align 8, !tbaa !201
  %11 = icmp eq ptr %9, %10
  br i1 %11, label %12, label %13

12:                                               ; preds = %3
  store i1 true, ptr %4, align 1
  br label %62

13:                                               ; preds = %3
  %14 = getelementptr inbounds nuw %"class.arrow::Field", ptr %9, i32 0, i32 1
  %15 = load ptr, ptr %6, align 8, !tbaa !201
  %16 = getelementptr inbounds nuw %"class.arrow::Field", ptr %15, i32 0, i32 1
  %17 = call noundef zeroext i1 @_ZSteqIcEN9__gnu_cxx11__enable_ifIXsr9__is_charIT_EE7__valueEbE6__typeERKNSt7__cxx1112basic_stringIS2_St11char_traitsIS2_ESaIS2_EEESC_(ptr noundef nonnull align 8 dereferenceable(32) %14, ptr noundef nonnull align 8 dereferenceable(32) %16) #15
  br i1 %17, label %18, label %61

18:                                               ; preds = %13
  %19 = getelementptr inbounds nuw %"class.arrow::Field", ptr %9, i32 0, i32 3
  %20 = load i8, ptr %19, align 8, !tbaa !248, !range !181, !noundef !182
  %21 = trunc i8 %20 to i1
  %22 = zext i1 %21 to i32
  %23 = load ptr, ptr %6, align 8, !tbaa !201
  %24 = getelementptr inbounds nuw %"class.arrow::Field", ptr %23, i32 0, i32 3
  %25 = load i8, ptr %24, align 8, !tbaa !248, !range !181, !noundef !182
  %26 = trunc i8 %25 to i1
  %27 = zext i1 %26 to i32
  %28 = icmp eq i32 %22, %27
  br i1 %28, label %29, label %61

29:                                               ; preds = %18
  %30 = getelementptr inbounds nuw %"class.arrow::Field", ptr %9, i32 0, i32 2
  %31 = call noundef ptr @_ZNKSt19__shared_ptr_accessIN5arrow8DataTypeELN9__gnu_cxx12_Lock_policyE2ELb0ELb0EEptEv(ptr noundef nonnull align 1 dereferenceable(1) %30) #15
  %32 = load ptr, ptr %6, align 8, !tbaa !201
  %33 = getelementptr inbounds nuw %"class.arrow::Field", ptr %32, i32 0, i32 2
  %34 = call noundef ptr @_ZNKSt12__shared_ptrIN5arrow8DataTypeELN9__gnu_cxx12_Lock_policyE2EE3getEv(ptr noundef nonnull align 8 dereferenceable(16) %33) #15
  %35 = load i8, ptr %7, align 1, !tbaa !226, !range !181, !noundef !182
  %36 = trunc i8 %35 to i1
  %37 = call noundef zeroext i1 @_ZNK5arrow8DataType6EqualsERKS0_b(ptr noundef nonnull align 8 dereferenceable(72) %31, ptr noundef nonnull align 8 dereferenceable(72) %34, i1 noundef zeroext %36)
  br i1 %37, label %38, label %61

38:                                               ; preds = %29
  %39 = load i8, ptr %7, align 1, !tbaa !226, !range !181, !noundef !182
  %40 = trunc i8 %39 to i1
  br i1 %40, label %42, label %41

41:                                               ; preds = %38
  store i1 true, ptr %4, align 1
  br label %62

42:                                               ; preds = %38
  %43 = call noundef zeroext i1 @_ZNK5arrow5Field11HasMetadataEv(ptr noundef nonnull align 8 dereferenceable(96) %9)
  br i1 %43, label %44, label %54

44:                                               ; preds = %42
  %45 = load ptr, ptr %6, align 8, !tbaa !201
  %46 = call noundef zeroext i1 @_ZNK5arrow5Field11HasMetadataEv(ptr noundef nonnull align 8 dereferenceable(96) %45)
  br i1 %46, label %47, label %54

47:                                               ; preds = %44
  %48 = getelementptr inbounds nuw %"class.arrow::Field", ptr %9, i32 0, i32 4
  %49 = call noundef ptr @_ZNKSt19__shared_ptr_accessIKN5arrow16KeyValueMetadataELN9__gnu_cxx12_Lock_policyE2ELb0ELb0EEptEv(ptr noundef nonnull align 1 dereferenceable(1) %48) #15
  %50 = load ptr, ptr %6, align 8, !tbaa !201
  %51 = getelementptr inbounds nuw %"class.arrow::Field", ptr %50, i32 0, i32 4
  %52 = call noundef nonnull align 8 dereferenceable(48) ptr @_ZNKSt19__shared_ptr_accessIKN5arrow16KeyValueMetadataELN9__gnu_cxx12_Lock_policyE2ELb0ELb0EEdeEv(ptr noundef nonnull align 1 dereferenceable(1) %51) #15
  %53 = call noundef zeroext i1 @_ZNK5arrow16KeyValueMetadata6EqualsERKS0_(ptr noundef nonnull align 8 dereferenceable(48) %49, ptr noundef nonnull align 8 dereferenceable(48) %52)
  store i1 %53, ptr %4, align 1
  br label %62

54:                                               ; preds = %44, %42
  %55 = call noundef zeroext i1 @_ZNK5arrow5Field11HasMetadataEv(ptr noundef nonnull align 8 dereferenceable(96) %9)
  br i1 %55, label %60, label %56

56:                                               ; preds = %54
  %57 = load ptr, ptr %6, align 8, !tbaa !201
  %58 = call noundef zeroext i1 @_ZNK5arrow5Field11HasMetadataEv(ptr noundef nonnull align 8 dereferenceable(96) %57)
  br i1 %58, label %60, label %59

59:                                               ; preds = %56
  store i1 true, ptr %4, align 1
  br label %62

60:                                               ; preds = %56, %54
  store i1 false, ptr %4, align 1
  br label %62

61:                                               ; preds = %29, %18, %13
  store i1 false, ptr %4, align 1
  br label %62

62:                                               ; preds = %61, %60, %59, %47, %41, %12
  %63 = load i1, ptr %4, align 1
  ret i1 %63
}