; Function Attrs: mustprogress uwtable
define noundef zeroext i1 @_ZNK5arrow5Field6EqualsERKS0_b(ptr noundef nonnull readonly align 8 captures(address) dereferenceable(96) %0, ptr noundef nonnull readonly align 8 captures(address) dereferenceable(96) %1, i1 noundef zeroext %2) local_unnamed_addr #1 align 2 personality ptr @__gxx_personality_v0 {
  %4 = icmp eq ptr %0, %1
  br i1 %4, label %_ZSteqIcEN9__gnu_cxx11__enable_ifIXsr9__is_charIT_EE7__valueEbE6__typeERKNSt7__cxx1112basic_stringIS2_St11char_traitsIS2_ESaIS2_EEESC_.exit.thread19, label %5

5:                                                ; preds = %3
  %6 = getelementptr inbounds nuw i8, ptr %0, i64 24
  %7 = getelementptr inbounds nuw i8, ptr %1, i64 24
  %8 = getelementptr inbounds nuw i8, ptr %0, i64 32
  %9 = load i64, ptr %8, align 8, !tbaa !40
  %10 = getelementptr inbounds nuw i8, ptr %1, i64 32
  %11 = load i64, ptr %10, align 8, !tbaa !40
  %12 = icmp eq i64 %9, %11
  br i1 %12, label %13, label %_ZSteqIcEN9__gnu_cxx11__enable_ifIXsr9__is_charIT_EE7__valueEbE6__typeERKNSt7__cxx1112basic_stringIS2_St11char_traitsIS2_ESaIS2_EEESC_.exit.thread19

13:                                               ; preds = %5
  %14 = icmp eq i64 %9, 0
  br i1 %14, label %_ZSteqIcEN9__gnu_cxx11__enable_ifIXsr9__is_charIT_EE7__valueEbE6__typeERKNSt7__cxx1112basic_stringIS2_St11char_traitsIS2_ESaIS2_EEESC_.exit.thread, label %_ZSteqIcEN9__gnu_cxx11__enable_ifIXsr9__is_charIT_EE7__valueEbE6__typeERKNSt7__cxx1112basic_stringIS2_St11char_traitsIS2_ESaIS2_EEESC_.exit

_ZSteqIcEN9__gnu_cxx11__enable_ifIXsr9__is_charIT_EE7__valueEbE6__typeERKNSt7__cxx1112basic_stringIS2_St11char_traitsIS2_ESaIS2_EEESC_.exit: ; preds = %13
  %15 = load ptr, ptr %7, align 8, !tbaa !47
  %16 = load ptr, ptr %6, align 8, !tbaa !47
  %bcmp.i = tail call i32 @bcmp(ptr %16, ptr %15, i64 %9)
  %17 = icmp eq i32 %bcmp.i, 0
  br i1 %17, label %_ZSteqIcEN9__gnu_cxx11__enable_ifIXsr9__is_charIT_EE7__valueEbE6__typeERKNSt7__cxx1112basic_stringIS2_St11char_traitsIS2_ESaIS2_EEESC_.exit.thread, label %_ZSteqIcEN9__gnu_cxx11__enable_ifIXsr9__is_charIT_EE7__valueEbE6__typeERKNSt7__cxx1112basic_stringIS2_St11char_traitsIS2_ESaIS2_EEESC_.exit.thread19

_ZSteqIcEN9__gnu_cxx11__enable_ifIXsr9__is_charIT_EE7__valueEbE6__typeERKNSt7__cxx1112basic_stringIS2_St11char_traitsIS2_ESaIS2_EEESC_.exit.thread: ; preds = %13, %_ZSteqIcEN9__gnu_cxx11__enable_ifIXsr9__is_charIT_EE7__valueEbE6__typeERKNSt7__cxx1112basic_stringIS2_St11char_traitsIS2_ESaIS2_EEESC_.exit
  %18 = getelementptr inbounds nuw i8, ptr %0, i64 72
  %19 = load i8, ptr %18, align 8, !tbaa !628, !range !58, !noundef !59
  %20 = getelementptr inbounds nuw i8, ptr %1, i64 72
  %21 = load i8, ptr %20, align 8, !tbaa !628, !range !58, !noundef !59
  %22 = icmp eq i8 %19, %21
  br i1 %22, label %23, label %_ZSteqIcEN9__gnu_cxx11__enable_ifIXsr9__is_charIT_EE7__valueEbE6__typeERKNSt7__cxx1112basic_stringIS2_St11char_traitsIS2_ESaIS2_EEESC_.exit.thread19

23:                                               ; preds = %_ZSteqIcEN9__gnu_cxx11__enable_ifIXsr9__is_charIT_EE7__valueEbE6__typeERKNSt7__cxx1112basic_stringIS2_St11char_traitsIS2_ESaIS2_EEESC_.exit.thread
  %24 = getelementptr inbounds nuw i8, ptr %0, i64 56
  %25 = load ptr, ptr %24, align 8, !tbaa !333
  %26 = getelementptr inbounds nuw i8, ptr %1, i64 56
  %27 = load ptr, ptr %26, align 8, !tbaa !333
  %28 = tail call noundef zeroext i1 @_ZN5arrow10TypeEqualsERKNS_8DataTypeES2_b(ptr noundef nonnull align 8 dereferenceable(72) %25, ptr noundef nonnull align 8 dereferenceable(72) %27, i1 noundef zeroext %2)
  %brmerge.not = and i1 %2, %28
  br i1 %brmerge.not, label %29, label %_ZSteqIcEN9__gnu_cxx11__enable_ifIXsr9__is_charIT_EE7__valueEbE6__typeERKNSt7__cxx1112basic_stringIS2_St11char_traitsIS2_ESaIS2_EEESC_.exit.thread19

29:                                               ; preds = %23
  %30 = getelementptr inbounds nuw i8, ptr %0, i64 80
  %31 = load ptr, ptr %30, align 8, !tbaa !560
  %.not.i = icmp eq ptr %31, null
  br i1 %.not.i, label %_ZNK5arrow5Field11HasMetadataEv.exit16.thread, label %_ZNK5arrow5Field11HasMetadataEv.exit

_ZNK5arrow5Field11HasMetadataEv.exit:             ; preds = %29
  %32 = tail call noundef i64 @_ZNK5arrow16KeyValueMetadata4sizeEv(ptr noundef nonnull align 8 dereferenceable(48) %31)
  %33 = icmp sgt i64 %32, 0
  br i1 %33, label %34, label %_ZNK5arrow5Field11HasMetadataEv.exit14.thread

34:                                               ; preds = %_ZNK5arrow5Field11HasMetadataEv.exit
  %35 = getelementptr inbounds nuw i8, ptr %1, i64 80
  %36 = load ptr, ptr %35, align 8, !tbaa !560
  %.not.i13 = icmp eq ptr %36, null
  br i1 %.not.i13, label %_ZNK5arrow5Field11HasMetadataEv.exit14.thread, label %_ZNK5arrow5Field11HasMetadataEv.exit14

_ZNK5arrow5Field11HasMetadataEv.exit14:           ; preds = %34
  %37 = tail call noundef i64 @_ZNK5arrow16KeyValueMetadata4sizeEv(ptr noundef nonnull align 8 dereferenceable(48) %36)
  %38 = icmp sgt i64 %37, 0
  br i1 %38, label %39, label %_ZNK5arrow5Field11HasMetadataEv.exit14.thread

39:                                               ; preds = %_ZNK5arrow5Field11HasMetadataEv.exit14
  %40 = load ptr, ptr %30, align 8, !tbaa !560
  %41 = load ptr, ptr %35, align 8, !tbaa !560
  %42 = tail call noundef zeroext i1 @_ZNK5arrow16KeyValueMetadata6EqualsERKS0_(ptr noundef nonnull align 8 dereferenceable(48) %40, ptr noundef nonnull align 8 dereferenceable(48) %41)
  br label %_ZSteqIcEN9__gnu_cxx11__enable_ifIXsr9__is_charIT_EE7__valueEbE6__typeERKNSt7__cxx1112basic_stringIS2_St11char_traitsIS2_ESaIS2_EEESC_.exit.thread19

_ZNK5arrow5Field11HasMetadataEv.exit14.thread:    ; preds = %34, %_ZNK5arrow5Field11HasMetadataEv.exit14, %_ZNK5arrow5Field11HasMetadataEv.exit
  %.pr = load ptr, ptr %30, align 8, !tbaa !560
  %.not.i15 = icmp eq ptr %.pr, null
  br i1 %.not.i15, label %_ZNK5arrow5Field11HasMetadataEv.exit16.thread, label %_ZNK5arrow5Field11HasMetadataEv.exit16

_ZNK5arrow5Field11HasMetadataEv.exit16:           ; preds = %_ZNK5arrow5Field11HasMetadataEv.exit14.thread
  %43 = tail call noundef i64 @_ZNK5arrow16KeyValueMetadata4sizeEv(ptr noundef nonnull align 8 dereferenceable(48) %.pr)
  %44 = icmp sgt i64 %43, 0
  br i1 %44, label %49, label %_ZNK5arrow5Field11HasMetadataEv.exit16.thread

_ZNK5arrow5Field11HasMetadataEv.exit16.thread:    ; preds = %29, %_ZNK5arrow5Field11HasMetadataEv.exit14.thread, %_ZNK5arrow5Field11HasMetadataEv.exit16
  %45 = getelementptr inbounds nuw i8, ptr %1, i64 80
  %46 = load ptr, ptr %45, align 8, !tbaa !560
  %.not.i17 = icmp eq ptr %46, null
  br i1 %.not.i17, label %_ZSteqIcEN9__gnu_cxx11__enable_ifIXsr9__is_charIT_EE7__valueEbE6__typeERKNSt7__cxx1112basic_stringIS2_St11char_traitsIS2_ESaIS2_EEESC_.exit.thread19, label %_ZNK5arrow5Field11HasMetadataEv.exit18

_ZNK5arrow5Field11HasMetadataEv.exit18:           ; preds = %_ZNK5arrow5Field11HasMetadataEv.exit16.thread
  %47 = tail call noundef i64 @_ZNK5arrow16KeyValueMetadata4sizeEv(ptr noundef nonnull align 8 dereferenceable(48) %46)
  %48 = icmp sgt i64 %47, 0
  br i1 %48, label %49, label %_ZSteqIcEN9__gnu_cxx11__enable_ifIXsr9__is_charIT_EE7__valueEbE6__typeERKNSt7__cxx1112basic_stringIS2_St11char_traitsIS2_ESaIS2_EEESC_.exit.thread19

49:                                               ; preds = %_ZNK5arrow5Field11HasMetadataEv.exit18, %_ZNK5arrow5Field11HasMetadataEv.exit16
  br label %_ZSteqIcEN9__gnu_cxx11__enable_ifIXsr9__is_charIT_EE7__valueEbE6__typeERKNSt7__cxx1112basic_stringIS2_St11char_traitsIS2_ESaIS2_EEESC_.exit.thread19

_ZSteqIcEN9__gnu_cxx11__enable_ifIXsr9__is_charIT_EE7__valueEbE6__typeERKNSt7__cxx1112basic_stringIS2_St11char_traitsIS2_ESaIS2_EEESC_.exit.thread19: ; preds = %_ZNK5arrow5Field11HasMetadataEv.exit16.thread, %5, %23, %_ZSteqIcEN9__gnu_cxx11__enable_ifIXsr9__is_charIT_EE7__valueEbE6__typeERKNSt7__cxx1112basic_stringIS2_St11char_traitsIS2_ESaIS2_EEESC_.exit, %_ZSteqIcEN9__gnu_cxx11__enable_ifIXsr9__is_charIT_EE7__valueEbE6__typeERKNSt7__cxx1112basic_stringIS2_St11char_traitsIS2_ESaIS2_EEESC_.exit.thread, %_ZNK5arrow5Field11HasMetadataEv.exit18, %3, %49, %39
  %.0 = phi i1 [ %42, %39 ], [ false, %49 ], [ true, %3 ], [ true, %_ZNK5arrow5Field11HasMetadataEv.exit18 ], [ %28, %23 ], [ false, %_ZSteqIcEN9__gnu_cxx11__enable_ifIXsr9__is_charIT_EE7__valueEbE6__typeERKNSt7__cxx1112basic_stringIS2_St11char_traitsIS2_ESaIS2_EEESC_.exit.thread ], [ false, %_ZSteqIcEN9__gnu_cxx11__enable_ifIXsr9__is_charIT_EE7__valueEbE6__typeERKNSt7__cxx1112basic_stringIS2_St11char_traitsIS2_ESaIS2_EEESC_.exit ], [ false, %5 ], [ true, %_ZNK5arrow5Field11HasMetadataEv.exit16.thread ]
  ret i1 %.0
}